target datalayout = "e-m:e-p270:32:32-p271:32:32-p272:64:64-i64:64-i128:128-f80:128-n8:16:32:64-S128"
target triple = "x86_64-pc-linux-gnu"

; Function Attrs: mustprogress nounwind uwtable
define void @_ZN6icu_7719CollationDataWriter8copyDataEPKiiPKvPh(ptr noundef %0, i32 noundef %1, ptr noundef %2, ptr noundef %3) #4 align 2 {
  %5 = alloca ptr, align 8
  %6 = alloca i32, align 4
  %7 = alloca ptr, align 8
  %8 = alloca ptr, align 8
  %9 = alloca i32, align 4
  %10 = alloca i32, align 4
  store ptr %0, ptr %5, align 8, !tbaa !8
  store i32 %1, ptr %6, align 4, !tbaa !13
  store ptr %2, ptr %7, align 8, !tbaa !10
  store ptr %3, ptr %8, align 8, !tbaa !17
  call void @llvm.lifetime.start.p0(i64 4, ptr %9) #11
  %11 = load ptr, ptr %5, align 8, !tbaa !8
  %12 = load i32, ptr %6, align 4, !tbaa !13
  %13 = sext i32 %12 to i64
  %14 = getelementptr inbounds i32, ptr %11, i64 %13
  %15 = load i32, ptr %14, align 4, !tbaa !13
  store i32 %15, ptr %9, align 4, !tbaa !13
  call void @llvm.lifetime.start.p0(i64 4, ptr %10) #11
  %16 = load ptr, ptr %5, align 8, !tbaa !8
  %17 = load i32, ptr %6, align 4, !tbaa !13
  %18 = add nsw i32 %17, 1
  %19 = sext i32 %18 to i64
  %20 = getelementptr inbounds i32, ptr %16, i64 %19
  %21 = load i32, ptr %20, align 4, !tbaa !13
  store i32 %21, ptr %10, align 4, !tbaa !13
  %22 = load i32, ptr %9, align 4, !tbaa !13
  %23 = load i32, ptr %10, align 4, !tbaa !13
  %24 = icmp slt i32 %22, %23
  br i1 %24, label %25, label %38

25:                                               ; preds = %4
  br label %26

26:                                               ; preds = %25
  %27 = load ptr, ptr %8, align 8, !tbaa !17
  %28 = load i32, ptr %9, align 4, !tbaa !13
  %29 = sext i32 %28 to i64
  %30 = getelementptr inbounds i8, ptr %27, i64 %29
  %31 = load ptr, ptr %7, align 8, !tbaa !10
  %32 = load i32, ptr %10, align 4, !tbaa !13
  %33 = load i32, ptr %9, align 4, !tbaa !13
  %34 = sub nsw i32 %32, %33
  %35 = sext i32 %34 to i64
  call void @llvm.memcpy.p0.p0.i64(ptr align 1 %30, ptr align 1 %31, i64 %35, i1 false)
  br label %36

36:                                               ; preds = %26
  br label %37

37:                                               ; preds = %36
  br label %38

38:                                               ; preds = %37, %4
  call void @llvm.lifetime.end.p0(i64 4, ptr %10) #11
  call void @llvm.lifetime.end.p0(i64 4, ptr %9) #11
  ret void
}