; Function Attrs: mustprogress nofree norecurse nosync nounwind willreturn memory(argmem: readwrite) uwtable
define void @_ZN6icu_7719CollationDataWriter8copyDataEPKiiPKvPh(ptr noundef readonly captures(none) %0, i32 noundef %1, ptr noundef readonly captures(none) %2, ptr noundef writeonly captures(none) %3) local_unnamed_addr #6 align 2 {
  %5 = sext i32 %1 to i64
  %6 = getelementptr inbounds i32, ptr %0, i64 %5
  %7 = load i32, ptr %6, align 4, !tbaa !35
  %8 = getelementptr i8, ptr %6, i64 4
  %9 = load i32, ptr %8, align 4, !tbaa !35
  %10 = icmp slt i32 %7, %9
  br i1 %10, label %11, label %16

11:                                               ; preds = %4
  %12 = sext i32 %7 to i64
  %13 = getelementptr inbounds i8, ptr %3, i64 %12
  %14 = sub nsw i32 %9, %7
  %15 = sext i32 %14 to i64
  tail call void @llvm.memcpy.p0.p0.i64(ptr align 1 %13, ptr align 1 %2, i64 %15, i1 false)
  br label %16

16:                                               ; preds = %11, %4
  ret void
}